target datalayout = "e-m:e-p270:32:32-p271:32:32-p272:64:64-i64:64-i128:128-f80:128-n8:16:32:64-S128"
target triple = "x86_64-pc-linux-gnu"

%struct._GtkTreeIter = type { i32, ptr, ptr, ptr }
%struct.display_data = type { i64, i32, ptr, i8, i32, ptr, ptr, ptr, ptr, ptr, ptr, ptr, ptr }
%struct.popup_info = type { ptr, ptr, i32, i32, ptr, ptr, ptr, %struct._GtkTreeIter, ptr, ptr, i32, i8, ptr, ptr, i32, ptr, ptr, i32, i32 }
%struct.specific_info = type { i32, i32, ptr, ptr, ptr }

@popup_list = external global ptr, align 8
@.str.74 = private unnamed_addr constant [28 x i8] c"handle unknown response %d\0A\00", align 1

; Function Attrs: nounwind uwtable
define dso_local i32 @delete_popups() #0 {
  %1 = alloca ptr, align 8
  %2 = alloca ptr, align 8
  call void @llvm.lifetime.start.p0(i64 8, ptr %1) #11
  %3 = load ptr, ptr @popup_list, align 8
  %4 = call ptr @list_iterator_create(ptr noundef %3)
  store ptr %4, ptr %1, align 8
  call void @llvm.lifetime.start.p0(i64 8, ptr %2) #11
  store ptr null, ptr %2, align 8
  br label %5

5:                                                ; preds = %9, %0
  %6 = load ptr, ptr %1, align 8
  %7 = call ptr @list_next(ptr noundef %6)
  store ptr %7, ptr %2, align 8
  %8 = icmp ne ptr %7, null
  br i1 %8, label %9, label %13

9:                                                ; preds = %5
  %10 = load ptr, ptr %1, align 8
  %11 = call ptr @list_remove(ptr noundef %10)
  %12 = load ptr, ptr %2, align 8
  call void @destroy_popup_info(ptr noundef %12)
  br label %5, !llvm.loop !44

13:                                               ; preds = %5
  %14 = load ptr, ptr %1, align 8
  call void @list_iterator_destroy(ptr noundef %14)
  call void @llvm.lifetime.end.p0(i64 8, ptr %2) #11
  call void @llvm.lifetime.end.p0(i64 8, ptr %1) #11
  ret i32 0
}

; Function Attrs: nounwind uwtable
define internal void @_handle_response(ptr noundef %0, i32 noundef %1, ptr noundef %2) #0 {
  %4 = alloca ptr, align 8
  %5 = alloca i32, align 4
  %6 = alloca ptr, align 8
  store ptr %0, ptr %4, align 8
  store i32 %1, ptr %5, align 4
  store ptr %2, ptr %6, align 8
  %7 = load i32, ptr %5, align 4
  switch i32 %7, label %24 [
    i32 -5, label %8
    i32 -4, label %15
    i32 -7, label %15
    i32 -6, label %22
  ]

8:                                                ; preds = %3
  %9 = load ptr, ptr %6, align 8
  %10 = getelementptr inbounds nuw %struct.popup_info, ptr %9, i32 0, i32 0
  %11 = load ptr, ptr %10, align 8
  %12 = getelementptr inbounds nuw %struct.display_data, ptr %11, i32 0, i32 5
  %13 = load ptr, ptr %12, align 8
  %14 = load ptr, ptr %6, align 8
  call void %13(ptr noundef null, ptr noundef %14)
  br label %26

15:                                               ; preds = %3, %3
  %16 = load ptr, ptr %6, align 8
  %17 = getelementptr inbounds nuw %struct.popup_info, ptr %16, i32 0, i32 15
  %18 = load ptr, ptr %17, align 8
  %19 = getelementptr inbounds nuw %struct.specific_info, ptr %18, i32 0, i32 3
  %20 = load ptr, ptr %19, align 8
  %21 = call i32 @delete_popup(ptr noundef null, ptr noundef null, ptr noundef %20)
  br label %26

22:                                               ; preds = %3
  %23 = call i32 @delete_popups()
  br label %26

24:                                               ; preds = %3
  %25 = load i32, ptr %5, align 4
  call void (ptr, ...) @g_print(ptr noundef @.str.74, i32 noundef %25)
  br label %26

26:                                               ; preds = %24, %22, %15, %8
  ret void
}