; Function Attrs: nounwind uwtable
define internal void @_handle_response(ptr readnone captures(none) %0, i32 noundef %1, ptr noundef %2) #2 {
  switch i32 %1, label %21 [
    i32 -5, label %4
    i32 -4, label %8
    i32 -7, label %8
    i32 -6, label %14
  ]

4:                                                ; preds = %3
  %5 = load ptr, ptr %2, align 8
  %6 = getelementptr inbounds nuw i8, ptr %5, i64 32
  %7 = load ptr, ptr %6, align 8
  tail call void %7(ptr noundef null, ptr noundef nonnull %2) #16
  br label %22

8:                                                ; preds = %3, %3
  %9 = getelementptr inbounds nuw i8, ptr %2, i64 128
  %10 = load ptr, ptr %9, align 8
  %11 = getelementptr inbounds nuw i8, ptr %10, i64 16
  %12 = load ptr, ptr %11, align 8
  %13 = tail call i32 @delete_popup(ptr poison, ptr poison, ptr noundef %12)
  br label %22

14:                                               ; preds = %3
  %15 = load ptr, ptr @popup_list, align 8
  %16 = tail call ptr @list_iterator_create(ptr noundef %15) #16
  %17 = tail call ptr @list_next(ptr noundef %16) #16
  %.not4.i = icmp eq ptr %17, null
  br i1 %.not4.i, label %delete_popups.exit, label %.lr.ph.i

.lr.ph.i:                                         ; preds = %14, %.lr.ph.i
  %18 = phi ptr [ %20, %.lr.ph.i ], [ %17, %14 ]
  %19 = tail call ptr @list_remove(ptr noundef %16) #16
  tail call void @destroy_popup_info(ptr noundef nonnull %18)
  %20 = tail call ptr @list_next(ptr noundef %16) #16
  %.not.i = icmp eq ptr %20, null
  br i1 %.not.i, label %delete_popups.exit, label %.lr.ph.i, !llvm.loop !40

delete_popups.exit:                               ; preds = %.lr.ph.i, %14
  tail call void @list_iterator_destroy(ptr noundef %16) #16
  br label %22

21:                                               ; preds = %3
  tail call void (ptr, ...) @g_print(ptr noundef nonnull @.str.74, i32 noundef %1) #16
  br label %22

22:                                               ; preds = %21, %delete_popups.exit, %8, %4
  ret void
}